; ModuleID = '29/145.c'
source_filename = "29/145.c"
target datalayout = "e-m:e-p270:32:32-p271:32:32-p272:64:64-i64:64-f80:128-n8:16:32:64-S128"
target triple = "x86_64-pc-linux-gnu"

@.str = private unnamed_addr constant [3 x i8] c"%d\00", align 1
@.str.1 = private unnamed_addr constant [7 x i8] c"%.3lf\0A\00", align 1

; Function Attrs: noinline nounwind uwtable
define dso_local i32 @main() #0 {
  %1 = alloca i32, align 4
  %2 = alloca [100 x i32], align 16
  %3 = alloca i32, align 4
  %4 = alloca i32, align 4
  %5 = alloca i32, align 4
  %6 = alloca [100 x double], align 16
  %7 = alloca [100 x double], align 16
  %8 = alloca [100 x double], align 16
  store i32 0, i32* %1, align 4
  %9 = call i32 (i8*, ...) @__isoc99_scanf(i8* getelementptr inbounds ([3 x i8], [3 x i8]* @.str, i64 0, i64 0), i32* %4)
  store i32 0, i32* %3, align 4
  br label %10

10:                                               ; preds = %19, %0
  %11 = load i32, i32* %3, align 4
  %12 = load i32, i32* %4, align 4
  %13 = icmp slt i32 %11, %12
  br i1 %13, label %14, label %22

14:                                               ; preds = %10
  %15 = load i32, i32* %3, align 4
  %16 = sext i32 %15 to i64
  %17 = getelementptr inbounds [100 x i32], [100 x i32]* %2, i64 0, i64 %16
  %18 = call i32 (i8*, ...) @__isoc99_scanf(i8* getelementptr inbounds ([3 x i8], [3 x i8]* @.str, i64 0, i64 0), i32* %17)
  br label %19

19:                                               ; preds = %14
  %20 = load i32, i32* %3, align 4
  %21 = add nsw i32 %20, 1
  store i32 %21, i32* %3, align 4
  br label %10

22:                                               ; preds = %10
  store i32 0, i32* %3, align 4
  br label %23

23:                                               ; preds = %101, %22
  %24 = load i32, i32* %3, align 4
  %25 = load i32, i32* %4, align 4
  %26 = icmp slt i32 %24, %25
  br i1 %26, label %27, label %104

27:                                               ; preds = %23
  %28 = getelementptr inbounds [100 x double], [100 x double]* %6, i64 0, i64 0
  store double 2.000000e+00, double* %28, align 16
  %29 = getelementptr inbounds [100 x double], [100 x double]* %7, i64 0, i64 0
  store double 1.000000e+00, double* %29, align 16
  %30 = getelementptr inbounds [100 x double], [100 x double]* %6, i64 0, i64 1
  store double 3.000000e+00, double* %30, align 8
  %31 = getelementptr inbounds [100 x double], [100 x double]* %7, i64 0, i64 1
  store double 2.000000e+00, double* %31, align 8
  %32 = getelementptr inbounds [100 x double], [100 x double]* %6, i64 0, i64 0
  %33 = load double, double* %32, align 16
  %34 = getelementptr inbounds [100 x double], [100 x double]* %7, i64 0, i64 0
  %35 = load double, double* %34, align 16
  %36 = fdiv double %33, %35
  %37 = load i32, i32* %3, align 4
  %38 = sext i32 %37 to i64
  %39 = getelementptr inbounds [100 x double], [100 x double]* %8, i64 0, i64 %38
  store double %36, double* %39, align 8
  store i32 1, i32* %5, align 4
  br label %40

40:                                               ; preds = %97, %27
  %41 = load i32, i32* %5, align 4
  %42 = load i32, i32* %3, align 4
  %43 = sext i32 %42 to i64
  %44 = getelementptr inbounds [100 x i32], [100 x i32]* %2, i64 0, i64 %43
  %45 = load i32, i32* %44, align 4
  %46 = icmp slt i32 %41, %45
  br i1 %46, label %47, label %100

47:                                               ; preds = %40
  %48 = load i32, i32* %5, align 4
  %49 = icmp sgt i32 %48, 1
  br i1 %49, label %50, label %79

50:                                               ; preds = %47
  %51 = load i32, i32* %5, align 4
  %52 = sub nsw i32 %51, 1
  %53 = sext i32 %52 to i64
  %54 = getelementptr inbounds [100 x double], [100 x double]* %6, i64 0, i64 %53
  %55 = load double, double* %54, align 8
  %56 = load i32, i32* %5, align 4
  %57 = sub nsw i32 %56, 2
  %58 = sext i32 %57 to i64
  %59 = getelementptr inbounds [100 x double], [100 x double]* %6, i64 0, i64 %58
  %60 = load double, double* %59, align 8
  %61 = fadd double %55, %60
  %62 = load i32, i32* %5, align 4
  %63 = sext i32 %62 to i64
  %64 = getelementptr inbounds [100 x double], [100 x double]* %6, i64 0, i64 %63
  store double %61, double* %64, align 8
  %65 = load i32, i32* %5, align 4
  %66 = sub nsw i32 %65, 1
  %67 = sext i32 %66 to i64
  %68 = getelementptr inbounds [100 x double], [100 x double]* %7, i64 0, i64 %67
  %69 = load double, double* %68, align 8
  %70 = load i32, i32* %5, align 4
  %71 = sub nsw i32 %70, 2
  %72 = sext i32 %71 to i64
  %73 = getelementptr inbounds [100 x double], [100 x double]* %7, i64 0, i64 %72
  %74 = load double, double* %73, align 8
  %75 = fadd double %69, %74
  %76 = load i32, i32* %5, align 4
  %77 = sext i32 %76 to i64
  %78 = getelementptr inbounds [100 x double], [100 x double]* %7, i64 0, i64 %77
  store double %75, double* %78, align 8
  br label %79

79:                                               ; preds = %50, %47
  %80 = load i32, i32* %3, align 4
  %81 = sext i32 %80 to i64
  %82 = getelementptr inbounds [100 x double], [100 x double]* %8, i64 0, i64 %81
  %83 = load double, double* %82, align 8
  %84 = load i32, i32* %5, align 4
  %85 = sext i32 %84 to i64
  %86 = getelementptr inbounds [100 x double], [100 x double]* %6, i64 0, i64 %85
  %87 = load double, double* %86, align 8
  %88 = load i32, i32* %5, align 4
  %89 = sext i32 %88 to i64
  %90 = getelementptr inbounds [100 x double], [100 x double]* %7, i64 0, i64 %89
  %91 = load double, double* %90, align 8
  %92 = fdiv double %87, %91
  %93 = fadd double %83, %92
  %94 = load i32, i32* %3, align 4
  %95 = sext i32 %94 to i64
  %96 = getelementptr inbounds [100 x double], [100 x double]* %8, i64 0, i64 %95
  store double %93, double* %96, align 8
  br label %97

97:                                               ; preds = %79
  %98 = load i32, i32* %5, align 4
  %99 = add nsw i32 %98, 1
  store i32 %99, i32* %5, align 4
  br label %40

100:                                              ; preds = %40
  br label %101

101:                                              ; preds = %100
  %102 = load i32, i32* %3, align 4
  %103 = add nsw i32 %102, 1
  store i32 %103, i32* %3, align 4
  br label %23

104:                                              ; preds = %23
  store i32 0, i32* %3, align 4
  br label %105

105:                                              ; preds = %115, %104
  %106 = load i32, i32* %3, align 4
  %107 = load i32, i32* %4, align 4
  %108 = icmp slt i32 %106, %107
  br i1 %108, label %109, label %118

109:                                              ; preds = %105
  %110 = load i32, i32* %3, align 4
  %111 = sext i32 %110 to i64
  %112 = getelementptr inbounds [100 x double], [100 x double]* %8, i64 0, i64 %111
  %113 = load double, double* %112, align 8
  %114 = call i32 (i8*, ...) @printf(i8* getelementptr inbounds ([7 x i8], [7 x i8]* @.str.1, i64 0, i64 0), double %113)
  br label %115

115:                                              ; preds = %109
  %116 = load i32, i32* %3, align 4
  %117 = add nsw i32 %116, 1
  store i32 %117, i32* %3, align 4
  br label %105

118:                                              ; preds = %105
  ret i32 0
}

declare dso_local i32 @__isoc99_scanf(i8*, ...) #1

declare dso_local i32 @printf(i8*, ...) #1


!llvm.module.flags = !{!0}
!llvm.ident = !{!1}

!0 = !{i32 1, !"wchar_size", i32 4}
!1 = !{!"clang version 10.0.0-4ubuntu1 "}
